target datalayout = "e-m:e-p270:32:32-p271:32:32-p272:64:64-i64:64-i128:128-f80:128-n8:16:32:64-S128"
target triple = "x86_64-pc-linux-gnu"

%struct.redisServer = type { i32, i64, ptr, ptr, ptr, i32, i32, i32, i32, i32, ptr, ptr, ptr, ptr, ptr, i32, i32, i32, i32, i64, i32, i32, i32, i32, ptr, i32, i32, [41 x i8], i32, i64, i32, i32, i32, ptr, ptr, i32, i32, i64, ptr, ptr, ptr, ptr, [2 x i32], i32, i32, i32, i32, i32, i32, [16 x ptr], i32, ptr, ptr, i32, [8 x %struct.connListener], i32, %struct.connListener, ptr, ptr, ptr, ptr, ptr, ptr, ptr, ptr, ptr, ptr, i32, ptr, i32, ptr, [3 x %struct.pause_event], [256 x i8], ptr, i64, i32, i32, [128 x i32], i32, i32, i64, i32, i32, i32, i32, i32, i64, i64, i64, i64, i64, i64, i64, i64, i64, i64, double, i64, i64, i64, i64, i64, i64, i64, i64, i64, i64, i64, i64, i64, i64, i64, i64, i64, i64, i64, i64, i64, double, i64, i64, i64, i64, i64, ptr, i64, i64, i64, %struct.malloc_stats, i64, i64, i64, i64, i64, i64, i64, i64, i64, i64, i64, i64, double, [4 x i64], i64, i64, i64, i64, [128 x i64], [128 x i64], i64, i64, [7 x %struct.anon.2], i64, i64, i64, i64, i64, i64, [4 x %struct.durationStats], i32, i32, i32, i32, i32, i32, i32, i32, i32, i32, i32, i32, i64, i32, i32, i32, i32, i64, i64, i32, i32, i32, i32, i32, ptr, [3 x %struct.clientBufferLimitsConfig], i32, i32, i32, ptr, i32, i32, i32, i32, i32, i32, ptr, ptr, i32, i32, i64, i64, i64, i64, i64, i32, i32, ptr, i32, i32, i64, i64, i64, i64, i64, i32, i32, i64, i32, i32, i32, i32, i32, i32, i32, i32, ptr, i32, i64, i64, i64, i64, i32, ptr, i32, ptr, i32, i32, i32, i64, i64, i64, i64, i32, i32, i32, i32, i32, i32, ptr, i32, i32, ptr, i32, i32, i32, [2 x i32], i32, %struct.redisOpArray, i32, ptr, i32, ptr, i32, i32, i32, i32, i32, i32, i32, [41 x i8], [41 x i8], i64, i64, i64, i64, i32, i32, ptr, i64, i64, %struct.replDataBuf, i64, i64, i32, i32, i32, i32, i32, i32, i32, i32, i32, i64, ptr, i64, ptr, ptr, ptr, i32, i32, ptr, ptr, i32, i32, i32, i64, i64, i64, i64, ptr, ptr, i32, ptr, i64, i32, i32, i32, i64, i32, i32, i32, i32, ptr, i32, i32, [41 x i8], i64, i32, ptr, i32, i32, i64, i64, i32, i32, i32, i32, i32, i64, [3 x i32], i32, i32, i32, [10 x i32], ptr, ptr, i32, i64, ptr, ptr, i32, i32, i32, i32, i64, i64, i64, i64, i64, i64, i64, i64, i64, i64, i32, i32, i64, i64, i32, i64, i64, i64, i64, i64, ptr, ptr, i32, ptr, i32, i32, i32, i32, i64, i64, ptr, ptr, i32, i32, i32, i32, i32, ptr, ptr, ptr, i32, i32, i32, i32, i32, i32, i32, i64, i32, i32, i64, i32, i32, i32, i32, i32, i32, i32, i64, ptr, ptr, i64, ptr, i32, %struct.aclInfo, i32, i64, i32, i32, i32, %struct.redisTLSContextConfig, ptr, ptr, ptr, ptr, ptr, i64, i32, ptr, i32, i32, i32, i64, i32, ptr }
%struct.connListener = type { [16 x i32], i32, ptr, i32, i32, ptr, ptr }
%struct.pause_event = type { i32, i64 }
%struct.malloc_stats = type { i64, i64, i64, i64, i64, i64, i64, i64, i64, i64, i64 }
%struct.anon.2 = type { i64, i64, [16 x i64], i32 }
%struct.durationStats = type { i64, i64, i64 }
%struct.clientBufferLimitsConfig = type { i64, i64, i64 }
%struct.redisOpArray = type { ptr, i32, i32 }
%struct.replDataBuf = type { ptr, i64, i64, i64, i64 }
%struct.aclInfo = type { i64, i64, i64, i64 }
%struct.redisTLSContextConfig = type { ptr, ptr, ptr, ptr, ptr, ptr, ptr, ptr, ptr, ptr, ptr, ptr, i32, i32, i32, i32 }
%struct.RedisModuleCtx = type { ptr, ptr, ptr, ptr, ptr, i32, i32, i32, ptr, i32, ptr, ptr, ptr, ptr, i64, ptr }
%struct.client = type { i64, i64, ptr, i8, i8, i8, i8, i32, ptr, ptr, ptr, ptr, ptr, i64, i64, i32, ptr, i32, i32, ptr, i64, ptr, ptr, ptr, ptr, ptr, i32, i32, i64, ptr, i64, ptr, i64, i64, i64, i32, ptr, i64, i64, i32, i32, i32, i32, i64, i64, ptr, i64, i64, i64, i64, i64, i64, i64, i64, [41 x i8], i32, ptr, i32, i32, i64, %struct.multiState, %struct.blockingState, i64, ptr, ptr, ptr, ptr, ptr, ptr, ptr, ptr, ptr, ptr, ptr, ptr, ptr, ptr, i64, ptr, i64, i32, ptr, ptr, ptr, i64, %struct.listNode, i64, i64, i32, i64, ptr }
%struct.multiState = type { ptr, i32, i32, i32, i64, i32 }
%struct.blockingState = type { i32, i64, i32, ptr, i32, i32, i64, ptr, ptr, i64 }
%struct.listNode = type { ptr, ptr, ptr }
%struct.RedisModule = type { ptr, ptr, i32, i32, ptr, ptr, ptr, ptr, ptr, i32, i32, i32, i32, i32, ptr, ptr, ptr, ptr, ptr, i32, i32, i64 }
%struct.RedisModuleBlockedClient = type { ptr, ptr, ptr, ptr, ptr, ptr, ptr, ptr, ptr, ptr, i32, i32, i32, i64, i64, i32 }

@server = external global %struct.redisServer, align 8
@.str.2 = private unnamed_addr constant [9 x i8] c"module.c\00", align 1
@.str.40 = private unnamed_addr constant [29 x i8] c"Invalid module reply type %d\00", align 1
@.str.41 = private unnamed_addr constant [148 x i8] c"API misuse detected in module %s: RedisModule_ReplySet*Length() called without previous RedisModule_ReplyWith*(ctx,REDISMODULE_POSTPONED_LEN) call.\00", align 1

; Function Attrs: nounwind uwtable
define dso_local ptr @moduleGetReplyClient(ptr noundef %0) #0 {
  %2 = alloca ptr, align 8
  %3 = alloca ptr, align 8
  store ptr %0, ptr %3, align 8, !tbaa !13
  %4 = load ptr, ptr %3, align 8, !tbaa !13
  %5 = getelementptr inbounds nuw %struct.RedisModuleCtx, ptr %4, i32 0, i32 7
  %6 = load i32, ptr %5, align 8, !tbaa !98
  %7 = and i32 %6, 16
  %8 = icmp ne i32 %7, 0
  br i1 %8, label %9, label %21

9:                                                ; preds = %1
  %10 = load ptr, ptr %3, align 8, !tbaa !13
  %11 = getelementptr inbounds nuw %struct.RedisModuleCtx, ptr %10, i32 0, i32 3
  %12 = load ptr, ptr %11, align 8, !tbaa !321
  %13 = icmp ne ptr %12, null
  br i1 %13, label %14, label %20

14:                                               ; preds = %9
  %15 = load ptr, ptr %3, align 8, !tbaa !13
  %16 = getelementptr inbounds nuw %struct.RedisModuleCtx, ptr %15, i32 0, i32 3
  %17 = load ptr, ptr %16, align 8, !tbaa !321
  %18 = getelementptr inbounds nuw %struct.RedisModuleBlockedClient, ptr %17, i32 0, i32 9
  %19 = load ptr, ptr %18, align 8, !tbaa !322
  store ptr %19, ptr %2, align 8
  br label %25

20:                                               ; preds = %9
  store ptr null, ptr %2, align 8
  br label %25

21:                                               ; preds = %1
  %22 = load ptr, ptr %3, align 8, !tbaa !13
  %23 = getelementptr inbounds nuw %struct.RedisModuleCtx, ptr %22, i32 0, i32 2
  %24 = load ptr, ptr %23, align 8, !tbaa !106
  store ptr %24, ptr %2, align 8
  br label %25

25:                                               ; preds = %21, %20, %14
  %26 = load ptr, ptr %2, align 8
  ret ptr %26
}

; Function Attrs: nounwind uwtable
define dso_local void @moduleReplySetCollectionLength(ptr noundef %0, i64 noundef %1, i32 noundef %2) #0 {
  %4 = alloca ptr, align 8
  %5 = alloca i64, align 8
  %6 = alloca i32, align 4
  %7 = alloca ptr, align 8
  %8 = alloca i32, align 4
  store ptr %0, ptr %4, align 8, !tbaa !13
  store i64 %1, ptr %5, align 8, !tbaa !5
  store i32 %2, ptr %6, align 4, !tbaa !29
  call void @llvm.lifetime.start.p0(i64 8, ptr %7) #15
  %9 = load ptr, ptr %4, align 8, !tbaa !13
  %10 = call ptr @moduleGetReplyClient(ptr noundef %9)
  store ptr %10, ptr %7, align 8, !tbaa !31
  %11 = load ptr, ptr %7, align 8, !tbaa !31
  %12 = icmp eq ptr %11, null
  br i1 %12, label %13, label %14

13:                                               ; preds = %3
  store i32 1, ptr %8, align 4
  br label %100

14:                                               ; preds = %3
  %15 = load ptr, ptr %4, align 8, !tbaa !13
  %16 = getelementptr inbounds nuw %struct.RedisModuleCtx, ptr %15, i32 0, i32 9
  %17 = load i32, ptr %16, align 8, !tbaa !100
  %18 = icmp eq i32 %17, 0
  br i1 %18, label %19, label %32

19:                                               ; preds = %14
  br label %20

20:                                               ; preds = %19
  %21 = load i32, ptr getelementptr inbounds nuw (%struct.redisServer, ptr @server, i32 0, i32 159), align 8, !tbaa !101
  %22 = icmp slt i32 3, %21
  br i1 %22, label %23, label %24

23:                                               ; preds = %20
  br label %31

24:                                               ; preds = %20
  %25 = load ptr, ptr %4, align 8, !tbaa !13
  %26 = getelementptr inbounds nuw %struct.RedisModuleCtx, ptr %25, i32 0, i32 1
  %27 = load ptr, ptr %26, align 8, !tbaa !102
  %28 = getelementptr inbounds nuw %struct.RedisModule, ptr %27, i32 0, i32 1
  %29 = load ptr, ptr %28, align 8, !tbaa !103
  call void (i32, ptr, ...) @_serverLog(i32 noundef 3, ptr noundef @.str.41, ptr noundef %29)
  br label %30

30:                                               ; preds = %24
  br label %31

31:                                               ; preds = %30, %23
  store i32 1, ptr %8, align 4
  br label %100

32:                                               ; preds = %14
  %33 = load ptr, ptr %4, align 8, !tbaa !13
  %34 = getelementptr inbounds nuw %struct.RedisModuleCtx, ptr %33, i32 0, i32 9
  %35 = load i32, ptr %34, align 8, !tbaa !100
  %36 = add nsw i32 %35, -1
  store i32 %36, ptr %34, align 8, !tbaa !100
  %37 = load i32, ptr %6, align 4, !tbaa !29
  switch i32 %37, label %86 [
    i32 1, label %38
    i32 2, label %50
    i32 3, label %62
    i32 4, label %74
  ]

38:                                               ; preds = %32
  %39 = load ptr, ptr %7, align 8, !tbaa !31
  %40 = load ptr, ptr %4, align 8, !tbaa !13
  %41 = getelementptr inbounds nuw %struct.RedisModuleCtx, ptr %40, i32 0, i32 8
  %42 = load ptr, ptr %41, align 8, !tbaa !99
  %43 = load ptr, ptr %4, align 8, !tbaa !13
  %44 = getelementptr inbounds nuw %struct.RedisModuleCtx, ptr %43, i32 0, i32 9
  %45 = load i32, ptr %44, align 8, !tbaa !100
  %46 = sext i32 %45 to i64
  %47 = getelementptr inbounds ptr, ptr %42, i64 %46
  %48 = load ptr, ptr %47, align 8, !tbaa !9
  %49 = load i64, ptr %5, align 8, !tbaa !5
  call void @setDeferredArrayLen(ptr noundef %39, ptr noundef %48, i64 noundef %49)
  br label %88

50:                                               ; preds = %32
  %51 = load ptr, ptr %7, align 8, !tbaa !31
  %52 = load ptr, ptr %4, align 8, !tbaa !13
  %53 = getelementptr inbounds nuw %struct.RedisModuleCtx, ptr %52, i32 0, i32 8
  %54 = load ptr, ptr %53, align 8, !tbaa !99
  %55 = load ptr, ptr %4, align 8, !tbaa !13
  %56 = getelementptr inbounds nuw %struct.RedisModuleCtx, ptr %55, i32 0, i32 9
  %57 = load i32, ptr %56, align 8, !tbaa !100
  %58 = sext i32 %57 to i64
  %59 = getelementptr inbounds ptr, ptr %54, i64 %58
  %60 = load ptr, ptr %59, align 8, !tbaa !9
  %61 = load i64, ptr %5, align 8, !tbaa !5
  call void @setDeferredMapLen(ptr noundef %51, ptr noundef %60, i64 noundef %61)
  br label %88

62:                                               ; preds = %32
  %63 = load ptr, ptr %7, align 8, !tbaa !31
  %64 = load ptr, ptr %4, align 8, !tbaa !13
  %65 = getelementptr inbounds nuw %struct.RedisModuleCtx, ptr %64, i32 0, i32 8
  %66 = load ptr, ptr %65, align 8, !tbaa !99
  %67 = load ptr, ptr %4, align 8, !tbaa !13
  %68 = getelementptr inbounds nuw %struct.RedisModuleCtx, ptr %67, i32 0, i32 9
  %69 = load i32, ptr %68, align 8, !tbaa !100
  %70 = sext i32 %69 to i64
  %71 = getelementptr inbounds ptr, ptr %66, i64 %70
  %72 = load ptr, ptr %71, align 8, !tbaa !9
  %73 = load i64, ptr %5, align 8, !tbaa !5
  call void @setDeferredSetLen(ptr noundef %63, ptr noundef %72, i64 noundef %73)
  br label %88

74:                                               ; preds = %32
  %75 = load ptr, ptr %7, align 8, !tbaa !31
  %76 = load ptr, ptr %4, align 8, !tbaa !13
  %77 = getelementptr inbounds nuw %struct.RedisModuleCtx, ptr %76, i32 0, i32 8
  %78 = load ptr, ptr %77, align 8, !tbaa !99
  %79 = load ptr, ptr %4, align 8, !tbaa !13
  %80 = getelementptr inbounds nuw %struct.RedisModuleCtx, ptr %79, i32 0, i32 9
  %81 = load i32, ptr %80, align 8, !tbaa !100
  %82 = sext i32 %81 to i64
  %83 = getelementptr inbounds ptr, ptr %78, i64 %82
  %84 = load ptr, ptr %83, align 8, !tbaa !9
  %85 = load i64, ptr %5, align 8, !tbaa !5
  call void @setDeferredAttributeLen(ptr noundef %75, ptr noundef %84, i64 noundef %85)
  br label %88

86:                                               ; preds = %32
  %87 = load i32, ptr %6, align 4, !tbaa !29
  call void (ptr, i32, ptr, ...) @_serverPanic(ptr noundef @.str.2, i32 noundef 3311, ptr noundef @.str.40, i32 noundef %87)
  call void @abort() #18
  unreachable

88:                                               ; preds = %74, %62, %50, %38
  %89 = load ptr, ptr %4, align 8, !tbaa !13
  %90 = getelementptr inbounds nuw %struct.RedisModuleCtx, ptr %89, i32 0, i32 9
  %91 = load i32, ptr %90, align 8, !tbaa !100
  %92 = icmp eq i32 %91, 0
  br i1 %92, label %93, label %99

93:                                               ; preds = %88
  %94 = load ptr, ptr %4, align 8, !tbaa !13
  %95 = getelementptr inbounds nuw %struct.RedisModuleCtx, ptr %94, i32 0, i32 8
  %96 = load ptr, ptr %95, align 8, !tbaa !99
  call void @zfree(ptr noundef %96)
  %97 = load ptr, ptr %4, align 8, !tbaa !13
  %98 = getelementptr inbounds nuw %struct.RedisModuleCtx, ptr %97, i32 0, i32 8
  store ptr null, ptr %98, align 8, !tbaa !99
  br label %99

99:                                               ; preds = %93, %88
  store i32 0, ptr %8, align 4
  br label %100

100:                                              ; preds = %99, %31, %13
  call void @llvm.lifetime.end.p0(i64 8, ptr %7) #15
  %101 = load i32, ptr %8, align 4
  switch i32 %101, label %103 [
    i32 0, label %102
    i32 1, label %102
  ]

102:                                              ; preds = %100, %100
  ret void

103:                                              ; preds = %100
  unreachable
}

; Function Attrs: nounwind uwtable
define dso_local void @RM_ReplySetAttributeLength(ptr noundef %0, i64 noundef %1) #0 {
  %3 = alloca ptr, align 8
  %4 = alloca i64, align 8
  store ptr %0, ptr %3, align 8, !tbaa !13
  store i64 %1, ptr %4, align 8, !tbaa !5
  %5 = load ptr, ptr %3, align 8, !tbaa !13
  %6 = getelementptr inbounds nuw %struct.RedisModuleCtx, ptr %5, i32 0, i32 2
  %7 = load ptr, ptr %6, align 8, !tbaa !106
  %8 = getelementptr inbounds nuw %struct.client, ptr %7, i32 0, i32 7
  %9 = load i32, ptr %8, align 4, !tbaa !325
  %10 = icmp eq i32 %9, 2
  br i1 %10, label %11, label %12

11:                                               ; preds = %2
  br label %15

12:                                               ; preds = %2
  %13 = load ptr, ptr %3, align 8, !tbaa !13
  %14 = load i64, ptr %4, align 8, !tbaa !5
  call void @moduleReplySetCollectionLength(ptr noundef %13, i64 noundef %14, i32 noundef 4)
  br label %15

15:                                               ; preds = %12, %11
  ret void
}