; Function Attrs: nounwind uwtable
define dso_local void @RM_ReplySetAttributeLength(ptr noundef captures(none) %0, i64 noundef %1) #0 {
  %3 = getelementptr inbounds nuw i8, ptr %0, i64 16
  %4 = load ptr, ptr %3, align 8, !tbaa !95
  %5 = getelementptr inbounds nuw i8, ptr %4, i64 28
  %6 = load i32, ptr %5, align 4, !tbaa !276
  %7 = icmp eq i32 %6, 2
  br i1 %7, label %moduleReplySetCollectionLength.exit, label %8

8:                                                ; preds = %2
  %9 = getelementptr inbounds nuw i8, ptr %0, i64 48
  %10 = load i32, ptr %9, align 8, !tbaa !87
  %11 = and i32 %10, 16
  %.not.i.i = icmp eq i32 %11, 0
  br i1 %.not.i.i, label %moduleGetReplyClient.exit.i.thread, label %12

12:                                               ; preds = %8
  %13 = getelementptr inbounds nuw i8, ptr %0, i64 24
  %14 = load ptr, ptr %13, align 8, !tbaa !272
  %.not6.i.i = icmp eq ptr %14, null
  br i1 %.not6.i.i, label %moduleReplySetCollectionLength.exit, label %moduleGetReplyClient.exit.i

moduleGetReplyClient.exit.i:                      ; preds = %12
  %15 = getelementptr inbounds nuw i8, ptr %14, i64 72
  %.0.i.i.pre = load ptr, ptr %15, align 8, !tbaa !28
  %16 = icmp eq ptr %.0.i.i.pre, null
  br i1 %16, label %moduleReplySetCollectionLength.exit, label %moduleGetReplyClient.exit.i.thread

moduleGetReplyClient.exit.i.thread:               ; preds = %8, %moduleGetReplyClient.exit.i
  %.0.i.i4 = phi ptr [ %.0.i.i.pre, %moduleGetReplyClient.exit.i ], [ %4, %8 ]
  %17 = getelementptr inbounds nuw i8, ptr %0, i64 64
  %18 = load i32, ptr %17, align 8, !tbaa !89
  %19 = icmp eq i32 %18, 0
  br i1 %19, label %20, label %28

20:                                               ; preds = %moduleGetReplyClient.exit.i.thread
  %21 = load i32, ptr getelementptr inbounds nuw (i8, ptr @server, i64 6288), align 8, !tbaa !90
  %22 = icmp sgt i32 %21, 3
  br i1 %22, label %moduleReplySetCollectionLength.exit, label %23

23:                                               ; preds = %20
  %24 = getelementptr inbounds nuw i8, ptr %0, i64 8
  %25 = load ptr, ptr %24, align 8, !tbaa !91
  %26 = getelementptr inbounds nuw i8, ptr %25, i64 8
  %27 = load ptr, ptr %26, align 8, !tbaa !92
  tail call void (i32, ptr, ...) @_serverLog(i32 noundef 3, ptr noundef nonnull @.str.41, ptr noundef %27) #35
  br label %moduleReplySetCollectionLength.exit

28:                                               ; preds = %moduleGetReplyClient.exit.i.thread
  %29 = add nsw i32 %18, -1
  store i32 %29, ptr %17, align 8, !tbaa !89
  %30 = getelementptr inbounds nuw i8, ptr %0, i64 56
  %31 = load ptr, ptr %30, align 8, !tbaa !88
  %32 = sext i32 %29 to i64
  %33 = getelementptr inbounds ptr, ptr %31, i64 %32
  %34 = load ptr, ptr %33, align 8, !tbaa !83
  tail call void @setDeferredAttributeLen(ptr noundef nonnull %.0.i.i4, ptr noundef %34, i64 noundef %1) #35
  %35 = load i32, ptr %17, align 8, !tbaa !89
  %36 = icmp eq i32 %35, 0
  br i1 %36, label %37, label %moduleReplySetCollectionLength.exit

37:                                               ; preds = %28
  %38 = load ptr, ptr %30, align 8, !tbaa !88
  tail call void @zfree(ptr noundef %38) #35
  store ptr null, ptr %30, align 8, !tbaa !88
  br label %moduleReplySetCollectionLength.exit

moduleReplySetCollectionLength.exit:              ; preds = %37, %28, %23, %20, %moduleGetReplyClient.exit.i, %12, %2
  ret void
}